target datalayout = "e-m:e-p270:32:32-p271:32:32-p272:64:64-i64:64-i128:128-f80:128-n8:16:32:64-S128"
target triple = "x86_64-pc-linux-gnu"

%struct._zend_executor_globals = type { %struct._zval_struct, %struct._zval_struct, [32 x ptr], ptr, ptr, %struct._zend_array, %struct._zend_array, ptr, i32, i32, ptr, ptr, ptr, ptr, ptr, ptr, i64, ptr, ptr, i32, i32, i64, i32, i32, i32, i8, i8, %struct.zend_atomic_bool_s, %struct.zend_atomic_bool_s, ptr, i64, ptr, ptr, %struct._zend_array, %struct._zend_array, i32, i8, %struct._zval_struct, %struct._zval_struct, %struct._zend_stack, %struct._zend_stack, %struct._zend_stack, ptr, i32, i32, i64, ptr, ptr, ptr, %struct._zend_objects_store, ptr, ptr, ptr, [3 x %struct._zend_op], ptr, i8, i8, i64, i32, i32, ptr, [16 x %struct._HashTableIterator], ptr, %union._zend_function, %struct._zend_op, %struct._zend_array, i64, %struct.zend_get_gc_buffer, ptr, ptr, ptr, i64, i8, i32, ptr, ptr, i64, %struct._zend_call_stack, i64, i64, [6 x ptr] }
%struct.zend_atomic_bool_s = type { i8 }
%struct._zval_struct = type { %union._zend_value, %union.anon.0, %union.anon.3 }
%union._zend_value = type { i64 }
%union.anon.0 = type { i32 }
%union.anon.3 = type { i32 }
%struct._zend_stack = type { i32, i32, i32, ptr }
%struct._zend_objects_store = type { ptr, i32, i32, i32 }
%struct._HashTableIterator = type { ptr, i32, i32 }
%union._zend_function = type { %struct._zend_op_array }
%struct._zend_op_array = type { i8, [3 x i8], i32, ptr, ptr, ptr, i32, i32, ptr, ptr, ptr, ptr, i32, i32, i32, i32, ptr, ptr, ptr, ptr, ptr, i32, i32, ptr, ptr, ptr, i32, i32, i32, i32, ptr, ptr, [6 x ptr] }
%struct._zend_op = type { ptr, %union._znode_op, %union._znode_op, %union._znode_op, i32, i32, i8, i8, i8, i8 }
%union._znode_op = type { i32 }
%struct._zend_array = type { %struct._zend_refcounted_h, %union.anon.4, i32, %union.anon.6, i32, i32, i32, i32, i64, ptr }
%struct._zend_refcounted_h = type { i32, %union.anon }
%union.anon = type { i32 }
%union.anon.4 = type { i32 }
%union.anon.6 = type { ptr }
%struct.zend_get_gc_buffer = type { ptr, ptr, ptr }
%struct._zend_call_stack = type { ptr, i64 }
%struct._zend_string = type { %struct._zend_refcounted_h, i64, i64, [1 x i8] }
%struct._xmlNode = type { ptr, i32, ptr, ptr, ptr, ptr, ptr, ptr, ptr, ptr, ptr, ptr, ptr, ptr, i16, i16 }
%struct._dom_object = type { ptr, ptr, ptr, %struct._zend_object }
%struct._zend_object = type { %struct._zend_refcounted_h, i32, ptr, ptr, ptr, [1 x %struct._zval_struct] }
%struct._php_libxml_ref_obj = type { ptr, ptr, %struct.php_libxml_cache_tag, i32, i8 }
%struct.php_libxml_cache_tag = type { i64 }
%struct._zend_execute_data = type { ptr, ptr, ptr, ptr, %struct._zval_struct, ptr, ptr, ptr, ptr }
%struct._zend_class_entry = type { i8, ptr, %union.anon.8, i32, i32, i32, i32, ptr, ptr, ptr, %struct._zend_array, %struct._zend_array, %struct._zend_array, ptr, ptr, ptr, ptr, ptr, ptr, ptr, ptr, ptr, ptr, ptr, ptr, ptr, ptr, ptr, ptr, ptr, ptr, ptr, %union.anon.9, ptr, ptr, ptr, ptr, i32, i32, %union.anon.10, ptr, ptr, ptr, ptr, i32, ptr, ptr, %union.anon.11 }
%union.anon.8 = type { ptr }
%union.anon.9 = type { ptr }
%union.anon.10 = type { ptr }
%union.anon.11 = type { %struct.anon.12 }
%struct.anon.12 = type { ptr, i32, i32 }
%struct._php_libxml_node_ptr = type { ptr, i32, ptr }

@dom_node_class_entry = external global ptr, align 8
@executor_globals = external global %struct._zend_executor_globals, align 8
@.str.11 = private unnamed_addr constant [18 x i8] c"Couldn't fetch %s\00", align 1
@.str.15 = private unnamed_addr constant [2 x i8] c"O\00", align 1

; Function Attrs: nounwind uwtable
define internal ptr @php_dom_obj_from_obj(ptr noundef %0) #0 {
  %2 = alloca ptr, align 8
  store ptr %0, ptr %2, align 8
  %3 = load ptr, ptr %2, align 8
  %4 = getelementptr inbounds i8, ptr %3, i64 -24
  ret ptr %4
}

; Function Attrs: nounwind uwtable
define hidden void @zim_DOMNode_removeChild(ptr noundef %0, ptr noundef %1) #0 {
  %3 = alloca ptr, align 8
  %4 = alloca ptr, align 8
  %5 = alloca ptr, align 8
  %6 = alloca ptr, align 8
  %7 = alloca ptr, align 8
  %8 = alloca ptr, align 8
  %9 = alloca ptr, align 8
  %10 = alloca ptr, align 8
  %11 = alloca ptr, align 8
  %12 = alloca i32, align 4
  %13 = alloca i32, align 4
  store ptr %0, ptr %4, align 8
  store ptr %1, ptr %5, align 8
  %14 = load ptr, ptr %4, align 8
  %15 = getelementptr inbounds %struct._zend_execute_data, ptr %14, i32 0, i32 4
  store ptr %15, ptr %6, align 8
  %16 = load ptr, ptr %4, align 8
  %17 = getelementptr inbounds %struct._zend_execute_data, ptr %16, i32 0, i32 4
  %18 = getelementptr inbounds %struct._zval_struct, ptr %17, i32 0, i32 2
  %19 = load i32, ptr %18, align 4
  %20 = load ptr, ptr @dom_node_class_entry, align 8
  %21 = call i32 (i32, ptr, ...) @zend_parse_parameters(i32 noundef %19, ptr noundef @.str.15, ptr noundef %7, ptr noundef %20)
  %22 = icmp eq i32 %21, -1
  br i1 %22, label %23, label %28

23:                                               ; preds = %2
  br label %24

24:                                               ; preds = %23
  %25 = load ptr, ptr getelementptr inbounds (%struct._zend_executor_globals, ptr @executor_globals, i32 0, i32 50), align 8
  %26 = icmp ne ptr %25, null
  call void @llvm.assume(i1 %26)
  br label %168

27:                                               ; No predecessors!
  br label %28

28:                                               ; preds = %27, %2
  %29 = load ptr, ptr %6, align 8
  %30 = getelementptr inbounds %struct._zval_struct, ptr %29, i32 0, i32 0
  %31 = load ptr, ptr %30, align 8
  %32 = call ptr @php_dom_obj_from_obj(ptr noundef %31)
  store ptr %32, ptr %10, align 8
  %33 = load ptr, ptr %10, align 8
  %34 = getelementptr inbounds %struct._dom_object, ptr %33, i32 0, i32 0
  %35 = load ptr, ptr %34, align 8
  %36 = icmp eq ptr %35, null
  %37 = xor i1 %36, true
  %38 = xor i1 %37, true
  %39 = zext i1 %38 to i32
  %40 = sext i32 %39 to i64
  %41 = icmp ne i64 %40, 0
  br i1 %41, label %42, label %55

42:                                               ; preds = %28
  %43 = load ptr, ptr %10, align 8
  %44 = getelementptr inbounds %struct._dom_object, ptr %43, i32 0, i32 3
  %45 = getelementptr inbounds %struct._zend_object, ptr %44, i32 0, i32 2
  %46 = load ptr, ptr %45, align 8
  %47 = getelementptr inbounds %struct._zend_class_entry, ptr %46, i32 0, i32 1
  %48 = load ptr, ptr %47, align 8
  %49 = getelementptr inbounds %struct._zend_string, ptr %48, i32 0, i32 3
  %50 = getelementptr inbounds [1 x i8], ptr %49, i64 0, i64 0
  call void (ptr, ptr, ...) @zend_throw_error(ptr noundef null, ptr noundef @.str.11, ptr noundef %50)
  br label %51

51:                                               ; preds = %42
  %52 = load ptr, ptr getelementptr inbounds (%struct._zend_executor_globals, ptr @executor_globals, i32 0, i32 50), align 8
  %53 = icmp ne ptr %52, null
  call void @llvm.assume(i1 %53)
  br label %168

54:                                               ; No predecessors!
  br label %55

55:                                               ; preds = %54, %28
  %56 = load ptr, ptr %10, align 8
  %57 = getelementptr inbounds %struct._dom_object, ptr %56, i32 0, i32 0
  %58 = load ptr, ptr %57, align 8
  %59 = getelementptr inbounds %struct._php_libxml_node_ptr, ptr %58, i32 0, i32 0
  %60 = load ptr, ptr %59, align 8
  store ptr %60, ptr %9, align 8
  %61 = load ptr, ptr %9, align 8
  %62 = call i32 @dom_node_children_valid(ptr noundef %61)
  %63 = icmp eq i32 %62, -1
  br i1 %63, label %64, label %71

64:                                               ; preds = %55
  br label %65

65:                                               ; preds = %64
  br label %66

66:                                               ; preds = %65
  %67 = load ptr, ptr %5, align 8
  %68 = getelementptr inbounds %struct._zval_struct, ptr %67, i32 0, i32 1
  store i32 2, ptr %68, align 8
  br label %69

69:                                               ; preds = %66
  br label %168

70:                                               ; No predecessors!
  br label %71

71:                                               ; preds = %70, %55
  %72 = load ptr, ptr %7, align 8
  %73 = getelementptr inbounds %struct._zval_struct, ptr %72, i32 0, i32 0
  %74 = load ptr, ptr %73, align 8
  %75 = call ptr @php_dom_obj_from_obj(ptr noundef %74)
  store ptr %75, ptr %11, align 8
  %76 = load ptr, ptr %11, align 8
  %77 = getelementptr inbounds %struct._dom_object, ptr %76, i32 0, i32 0
  %78 = load ptr, ptr %77, align 8
  %79 = icmp eq ptr %78, null
  %80 = xor i1 %79, true
  %81 = xor i1 %80, true
  %82 = zext i1 %81 to i32
  %83 = sext i32 %82 to i64
  %84 = icmp ne i64 %83, 0
  br i1 %84, label %85, label %98

85:                                               ; preds = %71
  %86 = load ptr, ptr %11, align 8
  %87 = getelementptr inbounds %struct._dom_object, ptr %86, i32 0, i32 3
  %88 = getelementptr inbounds %struct._zend_object, ptr %87, i32 0, i32 2
  %89 = load ptr, ptr %88, align 8
  %90 = getelementptr inbounds %struct._zend_class_entry, ptr %89, i32 0, i32 1
  %91 = load ptr, ptr %90, align 8
  %92 = getelementptr inbounds %struct._zend_string, ptr %91, i32 0, i32 3
  %93 = getelementptr inbounds [1 x i8], ptr %92, i64 0, i64 0
  call void (ptr, ptr, ...) @zend_throw_error(ptr noundef null, ptr noundef @.str.11, ptr noundef %93)
  br label %94

94:                                               ; preds = %85
  %95 = load ptr, ptr getelementptr inbounds (%struct._zend_executor_globals, ptr @executor_globals, i32 0, i32 50), align 8
  %96 = icmp ne ptr %95, null
  call void @llvm.assume(i1 %96)
  br label %168

97:                                               ; No predecessors!
  br label %98

98:                                               ; preds = %97, %71
  %99 = load ptr, ptr %11, align 8
  %100 = getelementptr inbounds %struct._dom_object, ptr %99, i32 0, i32 0
  %101 = load ptr, ptr %100, align 8
  %102 = getelementptr inbounds %struct._php_libxml_node_ptr, ptr %101, i32 0, i32 0
  %103 = load ptr, ptr %102, align 8
  store ptr %103, ptr %8, align 8
  %104 = load ptr, ptr %10, align 8
  %105 = getelementptr inbounds %struct._dom_object, ptr %104, i32 0, i32 1
  %106 = load ptr, ptr %105, align 8
  %107 = call i32 @dom_get_strict_error(ptr noundef %106)
  store i32 %107, ptr %13, align 4
  %108 = load ptr, ptr %9, align 8
  %109 = call i32 @dom_node_is_read_only(ptr noundef %108)
  %110 = icmp eq i32 %109, 0
  br i1 %110, label %122, label %111

111:                                              ; preds = %98
  %112 = load ptr, ptr %8, align 8
  %113 = getelementptr inbounds %struct._xmlNode, ptr %112, i32 0, i32 5
  %114 = load ptr, ptr %113, align 8
  %115 = icmp ne ptr %114, null
  br i1 %115, label %116, label %130

116:                                              ; preds = %111
  %117 = load ptr, ptr %8, align 8
  %118 = getelementptr inbounds %struct._xmlNode, ptr %117, i32 0, i32 5
  %119 = load ptr, ptr %118, align 8
  %120 = call i32 @dom_node_is_read_only(ptr noundef %119)
  %121 = icmp eq i32 %120, 0
  br i1 %121, label %122, label %130

122:                                              ; preds = %116, %98
  %123 = load i32, ptr %13, align 4
  call void @php_dom_throw_error(i32 noundef 7, i32 noundef %123)
  br label %124

124:                                              ; preds = %122
  br label %125

125:                                              ; preds = %124
  %126 = load ptr, ptr %5, align 8
  %127 = getelementptr inbounds %struct._zval_struct, ptr %126, i32 0, i32 1
  store i32 2, ptr %127, align 8
  br label %128

128:                                              ; preds = %125
  br label %168

129:                                              ; No predecessors!
  br label %130

130:                                              ; preds = %129, %116, %111
  %131 = load ptr, ptr %9, align 8
  %132 = getelementptr inbounds %struct._xmlNode, ptr %131, i32 0, i32 3
  %133 = load ptr, ptr %132, align 8
  %134 = icmp ne ptr %133, null
  br i1 %134, label %135, label %141

135:                                              ; preds = %130
  %136 = load ptr, ptr %8, align 8
  %137 = getelementptr inbounds %struct._xmlNode, ptr %136, i32 0, i32 5
  %138 = load ptr, ptr %137, align 8
  %139 = load ptr, ptr %9, align 8
  %140 = icmp ne ptr %138, %139
  br i1 %140, label %141, label %149

141:                                              ; preds = %135, %130
  %142 = load i32, ptr %13, align 4
  call void @php_dom_throw_error(i32 noundef 8, i32 noundef %142)
  br label %143

143:                                              ; preds = %141
  br label %144

144:                                              ; preds = %143
  %145 = load ptr, ptr %5, align 8
  %146 = getelementptr inbounds %struct._zval_struct, ptr %145, i32 0, i32 1
  store i32 2, ptr %146, align 8
  br label %147

147:                                              ; preds = %144
  br label %168

148:                                              ; No predecessors!
  br label %149

149:                                              ; preds = %148, %135
  %150 = load ptr, ptr %8, align 8
  call void @xmlUnlinkNode(ptr noundef %150)
  %151 = load ptr, ptr %10, align 8
  %152 = getelementptr inbounds %struct._dom_object, ptr %151, i32 0, i32 1
  %153 = load ptr, ptr %152, align 8
  store ptr %153, ptr %3, align 8
  %154 = load ptr, ptr %3, align 8
  %155 = icmp ne ptr %154, null
  br i1 %155, label %157, label %156

156:                                              ; preds = %149
  br label %162

157:                                              ; preds = %149
  %158 = load ptr, ptr %3, align 8
  %159 = getelementptr inbounds %struct._php_libxml_ref_obj, ptr %158, i32 0, i32 2
  %160 = load i64, ptr %159, align 8
  %161 = add i64 %160, 1
  store i64 %161, ptr %159, align 8
  br label %162

162:                                              ; preds = %157, %156
  %163 = load ptr, ptr %8, align 8
  %164 = load ptr, ptr %5, align 8
  %165 = load ptr, ptr %10, align 8
  %166 = call zeroext i1 @php_dom_create_object(ptr noundef %163, ptr noundef %164, ptr noundef %165)
  %167 = zext i1 %166 to i32
  store i32 %167, ptr %12, align 4
  br label %168

168:                                              ; preds = %162, %147, %128, %94, %69, %51, %24
  ret void
}