; Function Attrs: nounwind uwtable
define hidden void @zim_DOMNode_removeChild(ptr nocapture noundef readonly %0, ptr noundef %1) local_unnamed_addr #0 {
  %3 = alloca ptr, align 8
  %4 = getelementptr inbounds i8, ptr %0, i64 44
  %5 = load i32, ptr %4, align 4
  %6 = load ptr, ptr @dom_node_class_entry, align 8
  %7 = call i32 (i32, ptr, ...) @zend_parse_parameters(i32 noundef %5, ptr noundef nonnull @.str.15, ptr noundef nonnull %3, ptr noundef %6) #12
  %8 = icmp eq i32 %7, -1
  br i1 %8, label %9, label %12

9:                                                ; preds = %2
  %10 = load ptr, ptr getelementptr inbounds (%struct._zend_executor_globals, ptr @executor_globals, i64 0, i32 50), align 8
  %11 = icmp ne ptr %10, null
  call void @llvm.assume(i1 %11)
  br label %76

12:                                               ; preds = %2
  %13 = getelementptr inbounds i8, ptr %0, i64 32
  %14 = load ptr, ptr %13, align 8
  %15 = getelementptr inbounds i8, ptr %14, i64 -24
  %16 = load ptr, ptr %15, align 8
  %17 = icmp eq ptr %16, null
  br i1 %17, label %18, label %26

18:                                               ; preds = %12
  %19 = getelementptr inbounds i8, ptr %14, i64 16
  %20 = load ptr, ptr %19, align 8
  %21 = getelementptr inbounds i8, ptr %20, i64 8
  %22 = load ptr, ptr %21, align 8
  %23 = getelementptr inbounds i8, ptr %22, i64 24
  call void (ptr, ptr, ...) @zend_throw_error(ptr noundef null, ptr noundef nonnull @.str.11, ptr noundef nonnull %23) #12
  %24 = load ptr, ptr getelementptr inbounds (%struct._zend_executor_globals, ptr @executor_globals, i64 0, i32 50), align 8
  %25 = icmp ne ptr %24, null
  call void @llvm.assume(i1 %25)
  br label %76

26:                                               ; preds = %12
  %27 = load ptr, ptr %16, align 8
  %28 = call i32 @dom_node_children_valid(ptr noundef %27) #12
  %29 = icmp eq i32 %28, -1
  br i1 %29, label %30, label %32

30:                                               ; preds = %26
  %31 = getelementptr inbounds i8, ptr %1, i64 8
  store i32 2, ptr %31, align 8
  br label %76

32:                                               ; preds = %26
  %33 = load ptr, ptr %3, align 8
  %34 = load ptr, ptr %33, align 8
  %35 = getelementptr inbounds i8, ptr %34, i64 -24
  %36 = load ptr, ptr %35, align 8
  %37 = icmp eq ptr %36, null
  br i1 %37, label %38, label %46

38:                                               ; preds = %32
  %39 = getelementptr inbounds i8, ptr %34, i64 16
  %40 = load ptr, ptr %39, align 8
  %41 = getelementptr inbounds i8, ptr %40, i64 8
  %42 = load ptr, ptr %41, align 8
  %43 = getelementptr inbounds i8, ptr %42, i64 24
  call void (ptr, ptr, ...) @zend_throw_error(ptr noundef null, ptr noundef nonnull @.str.11, ptr noundef nonnull %43) #12
  %44 = load ptr, ptr getelementptr inbounds (%struct._zend_executor_globals, ptr @executor_globals, i64 0, i32 50), align 8
  %45 = icmp ne ptr %44, null
  call void @llvm.assume(i1 %45)
  br label %76

46:                                               ; preds = %32
  %47 = load ptr, ptr %36, align 8
  %48 = getelementptr inbounds i8, ptr %14, i64 -16
  %49 = load ptr, ptr %48, align 8
  %50 = call i32 @dom_get_strict_error(ptr noundef %49) #12
  %51 = call i32 @dom_node_is_read_only(ptr noundef %27) #12
  %52 = icmp eq i32 %51, 0
  br i1 %52, label %59, label %53

53:                                               ; preds = %46
  %54 = getelementptr inbounds i8, ptr %47, i64 40
  %55 = load ptr, ptr %54, align 8
  %.not = icmp eq ptr %55, null
  br i1 %.not, label %61, label %56

56:                                               ; preds = %53
  %57 = call i32 @dom_node_is_read_only(ptr noundef nonnull %55) #12
  %58 = icmp eq i32 %57, 0
  br i1 %58, label %59, label %61

59:                                               ; preds = %56, %46
  call void @php_dom_throw_error(i32 noundef 7, i32 noundef %50) #12
  %60 = getelementptr inbounds i8, ptr %1, i64 8
  store i32 2, ptr %60, align 8
  br label %76

61:                                               ; preds = %56, %53
  %62 = getelementptr inbounds i8, ptr %27, i64 24
  %63 = load ptr, ptr %62, align 8
  %.not31 = icmp eq ptr %63, null
  br i1 %.not31, label %66, label %64

64:                                               ; preds = %61
  %65 = load ptr, ptr %54, align 8
  %.not32 = icmp eq ptr %65, %27
  br i1 %.not32, label %68, label %66

66:                                               ; preds = %64, %61
  call void @php_dom_throw_error(i32 noundef 8, i32 noundef %50) #12
  %67 = getelementptr inbounds i8, ptr %1, i64 8
  store i32 2, ptr %67, align 8
  br label %76

68:                                               ; preds = %64
  call void @xmlUnlinkNode(ptr noundef nonnull %47) #12
  %69 = load ptr, ptr %48, align 8
  %.not33 = icmp eq ptr %69, null
  br i1 %.not33, label %74, label %70

70:                                               ; preds = %68
  %71 = getelementptr inbounds i8, ptr %69, i64 16
  %72 = load i64, ptr %71, align 8
  %73 = add i64 %72, 1
  store i64 %73, ptr %71, align 8
  br label %74

74:                                               ; preds = %68, %70
  %75 = call zeroext i1 @php_dom_create_object(ptr noundef nonnull %47, ptr noundef %1, ptr noundef nonnull %15) #12
  br label %76

76:                                               ; preds = %74, %66, %59, %38, %30, %18, %9
  ret void
}